target datalayout = "e-m:e-p270:32:32-p271:32:32-p272:64:64-i64:64-i128:128-f80:128-n8:16:32:64-S128"
target triple = "x86_64-pc-linux-gnu"

%struct._object = type { %union.anon, ptr }
%union.anon = type { i64 }
%struct._cjk_mod_state = type { i32, i32, ptr, ptr, ptr, ptr }
%struct._multibyte_codec = type { ptr, ptr, ptr, ptr, ptr, ptr, ptr, ptr, ptr, ptr }
%struct._typeobject = type { %struct.PyVarObject, ptr, i64, i64, ptr, i64, ptr, ptr, ptr, ptr, ptr, ptr, ptr, ptr, ptr, ptr, ptr, ptr, ptr, i64, ptr, ptr, ptr, ptr, i64, ptr, ptr, ptr, ptr, ptr, ptr, ptr, ptr, ptr, i64, ptr, ptr, ptr, ptr, ptr, ptr, ptr, ptr, ptr, ptr, ptr, i32, ptr, ptr, i8, i16 }
%struct.PyVarObject = type { %struct._object, i64 }
%struct.codec_capsule = type { ptr, ptr }
%struct.anon = type { i32, i32 }

@PyExc_TypeError = external global ptr, align 8
@.str.4 = private unnamed_addr constant [32 x i8] c"encoding name must be a string.\00", align 1
@PyExc_LookupError = external global ptr, align 8
@.str.5 = private unnamed_addr constant [28 x i8] c"no such codec is supported.\00", align 1
@.str.6 = private unnamed_addr constant [21 x i8] c"multibytecodec.codec\00", align 1
@.str.7 = private unnamed_addr constant [16 x i8] c"_multibytecodec\00", align 1
@.str.8 = private unnamed_addr constant [15 x i8] c"__create_codec\00", align 1

; Function Attrs: alwaysinline nounwind uwtable
define internal void @Py_INCREF(ptr noundef %0) #5 {
  %2 = alloca ptr, align 8
  %3 = alloca i32, align 4
  %4 = alloca i32, align 4
  store ptr %0, ptr %2, align 8, !tbaa !17
  call void @llvm.lifetime.start.p0(i64 4, ptr %3) #9
  %5 = load ptr, ptr %2, align 8, !tbaa !17
  %6 = getelementptr inbounds nuw %struct._object, ptr %5, i32 0, i32 0
  %7 = getelementptr inbounds nuw %struct.anon, ptr %6, i32 0, i32 0
  %8 = load i32, ptr %7, align 8, !tbaa !44
  store i32 %8, ptr %3, align 4, !tbaa !21
  %9 = load i32, ptr %3, align 4, !tbaa !21
  %10 = icmp slt i32 %9, 0
  br i1 %10, label %11, label %12

11:                                               ; preds = %1
  store i32 1, ptr %4, align 4
  br label %18

12:                                               ; preds = %1
  %13 = load i32, ptr %3, align 4, !tbaa !21
  %14 = add i32 %13, 1
  %15 = load ptr, ptr %2, align 8, !tbaa !17
  %16 = getelementptr inbounds nuw %struct._object, ptr %15, i32 0, i32 0
  %17 = getelementptr inbounds nuw %struct.anon, ptr %16, i32 0, i32 0
  store i32 %14, ptr %17, align 8, !tbaa !44
  store i32 0, ptr %4, align 4
  br label %18

18:                                               ; preds = %12, %11
  call void @llvm.lifetime.end.p0(i64 4, ptr %3) #9
  %19 = load i32, ptr %4, align 4
  switch i32 %19, label %21 [
    i32 0, label %20
    i32 1, label %20
  ]

20:                                               ; preds = %18, %18
  ret void

21:                                               ; preds = %18
  unreachable
}

; Function Attrs: alwaysinline nounwind uwtable
define internal i32 @_Py_IsImmortal(ptr noundef %0) #5 {
  %2 = alloca ptr, align 8
  store ptr %0, ptr %2, align 8, !tbaa !17
  %3 = load ptr, ptr %2, align 8, !tbaa !17
  %4 = getelementptr inbounds nuw %struct._object, ptr %3, i32 0, i32 0
  %5 = getelementptr inbounds nuw %struct.anon, ptr %4, i32 0, i32 0
  %6 = load i32, ptr %5, align 8, !tbaa !44
  %7 = icmp slt i32 %6, 0
  %8 = zext i1 %7 to i32
  ret i32 %8
}

; Function Attrs: inlinehint nounwind uwtable
define internal ptr @_Py_NewRef(ptr noundef %0) #2 {
  %2 = alloca ptr, align 8
  store ptr %0, ptr %2, align 8, !tbaa !17
  %3 = load ptr, ptr %2, align 8, !tbaa !17
  call void @Py_INCREF(ptr noundef %3)
  %4 = load ptr, ptr %2, align 8, !tbaa !17
  ret ptr %4
}

; Function Attrs: alwaysinline nounwind uwtable
define internal void @Py_DECREF(ptr noundef %0) #5 {
  %2 = alloca ptr, align 8
  store ptr %0, ptr %2, align 8, !tbaa !17
  %3 = load ptr, ptr %2, align 8, !tbaa !17
  %4 = call i32 @_Py_IsImmortal(ptr noundef %3)
  %5 = icmp ne i32 %4, 0
  br i1 %5, label %6, label %7

6:                                                ; preds = %1
  br label %16

7:                                                ; preds = %1
  %8 = load ptr, ptr %2, align 8, !tbaa !17
  %9 = getelementptr inbounds nuw %struct._object, ptr %8, i32 0, i32 0
  %10 = getelementptr inbounds nuw %struct.anon, ptr %9, i32 0, i32 0
  %11 = load i32, ptr %10, align 8, !tbaa !44
  %12 = add i32 %11, -1
  store i32 %12, ptr %10, align 8, !tbaa !44
  %13 = icmp eq i32 %12, 0
  br i1 %13, label %14, label %16

14:                                               ; preds = %7
  %15 = load ptr, ptr %2, align 8, !tbaa !17
  call void @_Py_Dealloc(ptr noundef %15)
  br label %16

16:                                               ; preds = %6, %14, %7
  ret void
}

; Function Attrs: nounwind uwtable
define internal ptr @capsulate_codec(ptr noundef %0, ptr noundef %1) #0 {
  %3 = alloca ptr, align 8
  %4 = alloca ptr, align 8
  %5 = alloca ptr, align 8
  %6 = alloca ptr, align 8
  %7 = alloca i32, align 4
  store ptr %0, ptr %4, align 8, !tbaa !17
  store ptr %1, ptr %5, align 8, !tbaa !23
  call void @llvm.lifetime.start.p0(i64 8, ptr %6) #9
  %8 = call ptr @PyMem_Malloc(i64 noundef 16)
  store ptr %8, ptr %6, align 8, !tbaa !3
  %9 = load ptr, ptr %6, align 8, !tbaa !3
  %10 = icmp eq ptr %9, null
  br i1 %10, label %11, label %13

11:                                               ; preds = %2
  %12 = call ptr @PyErr_NoMemory()
  store ptr null, ptr %3, align 8
  store i32 1, ptr %7, align 4
  br label %22

13:                                               ; preds = %2
  %14 = load ptr, ptr %5, align 8, !tbaa !23
  %15 = load ptr, ptr %6, align 8, !tbaa !3
  %16 = getelementptr inbounds nuw %struct.codec_capsule, ptr %15, i32 0, i32 0
  store ptr %14, ptr %16, align 8, !tbaa !41
  %17 = load ptr, ptr %4, align 8, !tbaa !17
  %18 = call ptr @_Py_NewRef(ptr noundef %17)
  %19 = load ptr, ptr %6, align 8, !tbaa !3
  %20 = getelementptr inbounds nuw %struct.codec_capsule, ptr %19, i32 0, i32 1
  store ptr %18, ptr %20, align 8, !tbaa !43
  %21 = load ptr, ptr %6, align 8, !tbaa !3
  store ptr %21, ptr %3, align 8
  store i32 1, ptr %7, align 4
  br label %22

22:                                               ; preds = %13, %11
  call void @llvm.lifetime.end.p0(i64 8, ptr %6) #9
  %23 = load ptr, ptr %3, align 8
  ret ptr %23
}

; Function Attrs: nounwind uwtable
define internal ptr @getmultibytecodec() #0 {
  %1 = call ptr @PyImport_ImportModuleAttrString(ptr noundef @.str.7, ptr noundef @.str.8)
  ret ptr %1
}

; Function Attrs: nounwind uwtable
define internal ptr @_getcodec(ptr noundef %0, ptr noundef %1) #0 {
  %3 = alloca ptr, align 8
  %4 = alloca ptr, align 8
  %5 = alloca ptr, align 8
  %6 = alloca ptr, align 8
  %7 = alloca i32, align 4
  %8 = alloca ptr, align 8
  %9 = alloca ptr, align 8
  %10 = alloca ptr, align 8
  store ptr %0, ptr %4, align 8, !tbaa !17
  store ptr %1, ptr %5, align 8, !tbaa !23
  call void @llvm.lifetime.start.p0(i64 8, ptr %6) #9
  %11 = call ptr @getmultibytecodec()
  store ptr %11, ptr %6, align 8, !tbaa !17
  %12 = load ptr, ptr %6, align 8, !tbaa !17
  %13 = icmp eq ptr %12, null
  br i1 %13, label %14, label %15

14:                                               ; preds = %2
  store ptr null, ptr %3, align 8
  store i32 1, ptr %7, align 4
  br label %40

15:                                               ; preds = %2
  call void @llvm.lifetime.start.p0(i64 8, ptr %8) #9
  %16 = load ptr, ptr %4, align 8, !tbaa !17
  %17 = load ptr, ptr %5, align 8, !tbaa !23
  %18 = call ptr @capsulate_codec(ptr noundef %16, ptr noundef %17)
  store ptr %18, ptr %8, align 8, !tbaa !3
  %19 = load ptr, ptr %8, align 8, !tbaa !3
  %20 = icmp eq ptr %19, null
  br i1 %20, label %21, label %23

21:                                               ; preds = %15
  %22 = load ptr, ptr %6, align 8, !tbaa !17
  call void @Py_DECREF(ptr noundef %22)
  store ptr null, ptr %3, align 8
  store i32 1, ptr %7, align 4
  br label %39

23:                                               ; preds = %15
  call void @llvm.lifetime.start.p0(i64 8, ptr %9) #9
  %24 = load ptr, ptr %8, align 8, !tbaa !3
  %25 = call ptr @PyCapsule_New(ptr noundef %24, ptr noundef @.str.6, ptr noundef @destroy_codec_capsule)
  store ptr %25, ptr %9, align 8, !tbaa !17
  %26 = load ptr, ptr %9, align 8, !tbaa !17
  %27 = icmp eq ptr %26, null
  br i1 %27, label %28, label %31

28:                                               ; preds = %23
  %29 = load ptr, ptr %8, align 8, !tbaa !3
  call void @PyMem_Free(ptr noundef %29)
  %30 = load ptr, ptr %6, align 8, !tbaa !17
  call void @Py_DECREF(ptr noundef %30)
  store ptr null, ptr %3, align 8
  store i32 1, ptr %7, align 4
  br label %38

31:                                               ; preds = %23
  call void @llvm.lifetime.start.p0(i64 8, ptr %10) #9
  %32 = load ptr, ptr %6, align 8, !tbaa !17
  %33 = load ptr, ptr %9, align 8, !tbaa !17
  %34 = call ptr @PyObject_CallOneArg(ptr noundef %32, ptr noundef %33)
  store ptr %34, ptr %10, align 8, !tbaa !17
  %35 = load ptr, ptr %9, align 8, !tbaa !17
  call void @Py_DECREF(ptr noundef %35)
  %36 = load ptr, ptr %6, align 8, !tbaa !17
  call void @Py_DECREF(ptr noundef %36)
  %37 = load ptr, ptr %10, align 8, !tbaa !17
  store ptr %37, ptr %3, align 8
  store i32 1, ptr %7, align 4
  call void @llvm.lifetime.end.p0(i64 8, ptr %10) #9
  br label %38

38:                                               ; preds = %31, %28
  call void @llvm.lifetime.end.p0(i64 8, ptr %9) #9
  br label %39

39:                                               ; preds = %38, %21
  call void @llvm.lifetime.end.p0(i64 8, ptr %8) #9
  br label %40

40:                                               ; preds = %39, %14
  call void @llvm.lifetime.end.p0(i64 8, ptr %6) #9
  %41 = load ptr, ptr %3, align 8
  ret ptr %41
}

; Function Attrs: inlinehint nounwind uwtable
define internal ptr @get_module_state(ptr noundef %0) #2 {
  %2 = alloca ptr, align 8
  %3 = alloca ptr, align 8
  store ptr %0, ptr %2, align 8, !tbaa !17
  call void @llvm.lifetime.start.p0(i64 8, ptr %3) #9
  %4 = load ptr, ptr %2, align 8, !tbaa !17
  %5 = call ptr @PyModule_GetState(ptr noundef %4)
  store ptr %5, ptr %3, align 8, !tbaa !3
  %6 = load ptr, ptr %3, align 8, !tbaa !3
  call void @llvm.lifetime.end.p0(i64 8, ptr %3) #9
  ret ptr %6
}

; Function Attrs: inlinehint nounwind uwtable
define internal i32 @PyType_HasFeature(ptr noundef %0, i64 noundef %1) #2 {
  %3 = alloca ptr, align 8
  %4 = alloca i64, align 8
  %5 = alloca i64, align 8
  store ptr %0, ptr %3, align 8, !tbaa !28
  store i64 %1, ptr %4, align 8, !tbaa !30
  call void @llvm.lifetime.start.p0(i64 8, ptr %5) #9
  %6 = load ptr, ptr %3, align 8, !tbaa !28
  %7 = getelementptr inbounds nuw %struct._typeobject, ptr %6, i32 0, i32 19
  %8 = load i64, ptr %7, align 8, !tbaa !32
  store i64 %8, ptr %5, align 8, !tbaa !30
  %9 = load i64, ptr %5, align 8, !tbaa !30
  %10 = load i64, ptr %4, align 8, !tbaa !30
  %11 = and i64 %9, %10
  %12 = icmp ne i64 %11, 0
  %13 = zext i1 %12 to i32
  call void @llvm.lifetime.end.p0(i64 8, ptr %5) #9
  ret i32 %13
}

; Function Attrs: inlinehint nounwind uwtable
define internal ptr @_Py_TYPE(ptr noundef %0) #2 {
  %2 = alloca ptr, align 8
  store ptr %0, ptr %2, align 8, !tbaa !17
  %3 = load ptr, ptr %2, align 8, !tbaa !17
  %4 = getelementptr inbounds nuw %struct._object, ptr %3, i32 0, i32 1
  %5 = load ptr, ptr %4, align 8, !tbaa !40
  ret ptr %5
}

; Function Attrs: nounwind uwtable
define internal ptr @getcodec(ptr noundef %0, ptr noundef %1) #0 {
  %3 = alloca ptr, align 8
  %4 = alloca ptr, align 8
  %5 = alloca ptr, align 8
  %6 = alloca ptr, align 8
  %7 = alloca i32, align 4
  %8 = alloca ptr, align 8
  %9 = alloca i32, align 4
  %10 = alloca ptr, align 8
  store ptr %0, ptr %4, align 8, !tbaa !17
  store ptr %1, ptr %5, align 8, !tbaa !17
  %11 = load ptr, ptr %5, align 8, !tbaa !17
  %12 = call ptr @_Py_TYPE(ptr noundef %11)
  %13 = call i32 @PyType_HasFeature(ptr noundef %12, i64 noundef 268435456)
  %14 = icmp ne i32 %13, 0
  br i1 %14, label %17, label %15

15:                                               ; preds = %2
  %16 = load ptr, ptr @PyExc_TypeError, align 8, !tbaa !17
  call void @PyErr_SetString(ptr noundef %16, ptr noundef @.str.4)
  store ptr null, ptr %3, align 8
  br label %63

17:                                               ; preds = %2
  call void @llvm.lifetime.start.p0(i64 8, ptr %6) #9
  %18 = load ptr, ptr %5, align 8, !tbaa !17
  %19 = call ptr @PyUnicode_AsUTF8(ptr noundef %18)
  store ptr %19, ptr %6, align 8, !tbaa !19
  %20 = load ptr, ptr %6, align 8, !tbaa !19
  %21 = icmp eq ptr %20, null
  br i1 %21, label %22, label %23

22:                                               ; preds = %17
  store ptr null, ptr %3, align 8
  store i32 1, ptr %7, align 4
  br label %62

23:                                               ; preds = %17
  call void @llvm.lifetime.start.p0(i64 8, ptr %8) #9
  %24 = load ptr, ptr %4, align 8, !tbaa !17
  %25 = call ptr @get_module_state(ptr noundef %24)
  store ptr %25, ptr %8, align 8, !tbaa !7
  call void @llvm.lifetime.start.p0(i64 4, ptr %9) #9
  store i32 0, ptr %9, align 4, !tbaa !21
  br label %26

26:                                               ; preds = %54, %23
  %27 = load i32, ptr %9, align 4, !tbaa !21
  %28 = load ptr, ptr %8, align 8, !tbaa !7
  %29 = getelementptr inbounds nuw %struct._cjk_mod_state, ptr %28, i32 0, i32 1
  %30 = load i32, ptr %29, align 4, !tbaa !22
  %31 = icmp slt i32 %27, %30
  br i1 %31, label %33, label %32

32:                                               ; preds = %26
  store i32 2, ptr %7, align 4
  br label %57

33:                                               ; preds = %26
  call void @llvm.lifetime.start.p0(i64 8, ptr %10) #9
  %34 = load ptr, ptr %8, align 8, !tbaa !7
  %35 = getelementptr inbounds nuw %struct._cjk_mod_state, ptr %34, i32 0, i32 3
  %36 = load ptr, ptr %35, align 8, !tbaa !16
  %37 = load i32, ptr %9, align 4, !tbaa !21
  %38 = sext i32 %37 to i64
  %39 = getelementptr %struct._multibyte_codec, ptr %36, i64 %38
  store ptr %39, ptr %10, align 8, !tbaa !23
  %40 = load ptr, ptr %10, align 8, !tbaa !23
  %41 = getelementptr inbounds nuw %struct._multibyte_codec, ptr %40, i32 0, i32 0
  %42 = load ptr, ptr %41, align 8, !tbaa !24
  %43 = load ptr, ptr %6, align 8, !tbaa !19
  %44 = call i32 @strcmp(ptr noundef %42, ptr noundef %43) #10
  %45 = icmp eq i32 %44, 0
  br i1 %45, label %46, label %50

46:                                               ; preds = %33
  %47 = load ptr, ptr %4, align 8, !tbaa !17
  %48 = load ptr, ptr %10, align 8, !tbaa !23
  %49 = call ptr @_getcodec(ptr noundef %47, ptr noundef %48)
  store ptr %49, ptr %3, align 8
  store i32 1, ptr %7, align 4
  br label %51

50:                                               ; preds = %33
  store i32 0, ptr %7, align 4
  br label %51

51:                                               ; preds = %50, %46
  call void @llvm.lifetime.end.p0(i64 8, ptr %10) #9
  %52 = load i32, ptr %7, align 4
  switch i32 %52, label %57 [
    i32 0, label %53
  ]

53:                                               ; preds = %51
  br label %54

54:                                               ; preds = %53
  %55 = load i32, ptr %9, align 4, !tbaa !21
  %56 = add i32 %55, 1
  store i32 %56, ptr %9, align 4, !tbaa !21
  br label %26, !llvm.loop !26

57:                                               ; preds = %51, %32
  call void @llvm.lifetime.end.p0(i64 4, ptr %9) #9
  %58 = load i32, ptr %7, align 4
  switch i32 %58, label %61 [
    i32 2, label %59
  ]

59:                                               ; preds = %57
  %60 = load ptr, ptr @PyExc_LookupError, align 8, !tbaa !17
  call void @PyErr_SetString(ptr noundef %60, ptr noundef @.str.5)
  store ptr null, ptr %3, align 8
  store i32 1, ptr %7, align 4
  br label %61

61:                                               ; preds = %59, %57
  call void @llvm.lifetime.end.p0(i64 8, ptr %8) #9
  br label %62

62:                                               ; preds = %61, %22
  call void @llvm.lifetime.end.p0(i64 8, ptr %6) #9
  br label %63

63:                                               ; preds = %62, %15
  %64 = load ptr, ptr %3, align 8
  ret ptr %64
}